; Function Attrs: mustprogress nounwind uwtable
define hidden void @_ZN23lackr_model_constructorD2Ev(ptr noundef nonnull readonly align 8 captures(none) dereferenceable(44) %0) unnamed_addr #4 align 2 personality ptr @__gxx_personality_v0 {
  %2 = load ptr, ptr %0, align 8, !tbaa !3
  %3 = icmp eq ptr %2, null
  br i1 %3, label %_Z7deallocIN23lackr_model_constructor3impEEvPT_.exit, label %4

4:                                                ; preds = %1
  tail call void @_ZN23lackr_model_constructor3impD2Ev(ptr noundef nonnull align 8 dereferenceable(568) %2) #19
  invoke void @_ZN6memory10deallocateEPv(ptr noundef nonnull %2)
          to label %_Z7deallocIN23lackr_model_constructor3impEEvPT_.exit unwind label %25

_Z7deallocIN23lackr_model_constructor3impEEvPT_.exit: ; preds = %1, %4
  %5 = getelementptr inbounds nuw i8, ptr %0, i64 32
  %6 = load ptr, ptr %5, align 8, !tbaa !19
  %.not.i.i = icmp eq ptr %6, null
  br i1 %.not.i.i, label %_ZN3refI9ackr_infoED2Ev.exit, label %7

7:                                                ; preds = %_Z7deallocIN23lackr_model_constructor3impEEvPT_.exit
  %8 = getelementptr inbounds nuw i8, ptr %6, i64 128
  %9 = load i32, ptr %8, align 8, !tbaa !20
  %10 = add i32 %9, -1
  store i32 %10, ptr %8, align 8, !tbaa !20
  %11 = icmp eq i32 %10, 0
  br i1 %11, label %12, label %_ZN3refI9ackr_infoED2Ev.exit

12:                                               ; preds = %7
  %13 = load ptr, ptr %6, align 8, !tbaa !40
  %14 = load ptr, ptr %13, align 8
  tail call void %14(ptr noundef nonnull align 8 dereferenceable(133) %6) #19
  invoke void @_ZN6memory10deallocateEPv(ptr noundef nonnull align 8 dereferenceable(133) %6)
          to label %_ZN3refI9ackr_infoED2Ev.exit unwind label %15

15:                                               ; preds = %12
  %16 = landingpad { ptr, i32 }
          catch ptr null
  %17 = extractvalue { ptr, i32 } %16, 0
  tail call void @__clang_call_terminate(ptr %17) #20
  unreachable

_ZN3refI9ackr_infoED2Ev.exit:                     ; preds = %_Z7deallocIN23lackr_model_constructor3impEEvPT_.exit, %7, %12
  %18 = getelementptr inbounds nuw i8, ptr %0, i64 24
  %19 = load ptr, ptr %18, align 8, !tbaa !18
  %.not.i.i1 = icmp eq ptr %19, null
  br i1 %.not.i.i1, label %_ZN6vectorISt4pairIP3appS2_ELb1EjED2Ev.exit, label %20

20:                                               ; preds = %_ZN3refI9ackr_infoED2Ev.exit
  %21 = getelementptr inbounds i8, ptr %19, i64 -8
  invoke void @_ZN6memory10deallocateEPv(ptr noundef nonnull %21)
          to label %_ZN6vectorISt4pairIP3appS2_ELb1EjED2Ev.exit unwind label %22

22:                                               ; preds = %20
  %23 = landingpad { ptr, i32 }
          catch ptr null
  %24 = extractvalue { ptr, i32 } %23, 0
  tail call void @__clang_call_terminate(ptr %24) #20
  unreachable

_ZN6vectorISt4pairIP3appS2_ELb1EjED2Ev.exit:      ; preds = %_ZN3refI9ackr_infoED2Ev.exit, %20
  ret void

25:                                               ; preds = %4
  %26 = landingpad { ptr, i32 }
          catch ptr null
  %27 = extractvalue { ptr, i32 } %26, 0
  tail call void @__clang_call_terminate(ptr %27) #20
  unreachable
}